; Function Attrs: nofree norecurse nosync nounwind memory(readwrite, inaccessiblemem: none) uwtable
define void @Res_SimPerformRound(ptr noundef readonly captures(none) %0, i32 noundef %1) local_unnamed_addr #7 {
  %3 = getelementptr inbounds nuw i8, ptr %0, i64 48
  %4 = load ptr, ptr %3, align 8, !tbaa !26
  %5 = getelementptr i8, ptr %4, i64 8
  %.val23 = load ptr, ptr %5, align 8, !tbaa !25
  %6 = load ptr, ptr %.val23, align 8, !tbaa !19
  %7 = sext i32 %1 to i64
  %8 = shl nsw i64 %7, 2
  tail call void @llvm.memset.p0.i64(ptr align 4 %6, i8 -1, i64 %8, i1 false)
  %9 = load ptr, ptr %0, align 8, !tbaa !36
  %10 = getelementptr inbounds nuw i8, ptr %9, i64 32
  %11 = load ptr, ptr %10, align 8, !tbaa !38
  %12 = getelementptr i8, ptr %11, i64 4
  %.val28 = load i32, ptr %12, align 4, !tbaa !22
  %13 = icmp sgt i32 %.val28, 0
  br i1 %13, label %.lr.ph, label %.critedge.preheader

.critedge.preheader:                              ; preds = %53, %2
  %.lcssa = phi ptr [ %9, %2 ], [ %54, %53 ]
  %14 = getelementptr i8, ptr %.lcssa, i64 48
  %.val22 = load ptr, ptr %14, align 8, !tbaa !53
  %15 = getelementptr i8, ptr %.val22, i64 4
  %.val22.val30 = load i32, ptr %15, align 4, !tbaa !22
  %16 = icmp sgt i32 %.val22.val30, 0
  br i1 %16, label %.lr.ph32, label %.critedge2

.lr.ph32:                                         ; preds = %.critedge.preheader
  %17 = getelementptr i8, ptr %.val22, i64 8
  %.val26.val = load ptr, ptr %17, align 8, !tbaa !25
  %18 = load ptr, ptr %3, align 8, !tbaa !26
  %19 = getelementptr i8, ptr %18, i64 8
  %.val19.i = load ptr, ptr %19, align 8, !tbaa !25
  %20 = icmp sgt i32 %1, 0
  %wide.trip.count.i = zext nneg i32 %1 to i64
  br i1 %20, label %.lr.ph32.split.us, label %.critedge2

.lr.ph32.split.us:                                ; preds = %.lr.ph32, %Res_SimTransferOne.exit.us
  %indvars.iv37 = phi i64 [ %indvars.iv.next38, %Res_SimTransferOne.exit.us ], [ 0, %.lr.ph32 ]
  %21 = getelementptr inbounds nuw ptr, ptr %.val26.val, i64 %indvars.iv37
  %22 = load ptr, ptr %21, align 8, !tbaa !19
  %23 = getelementptr inbounds nuw i8, ptr %22, i64 16
  %24 = load i32, ptr %23, align 8, !tbaa !62
  %25 = sext i32 %24 to i64
  %26 = getelementptr inbounds ptr, ptr %.val19.i, i64 %25
  %27 = load ptr, ptr %26, align 8, !tbaa !19
  %28 = getelementptr i8, ptr %22, i64 32
  %.val20.i.us = load ptr, ptr %28, align 8, !tbaa !85
  %.val20.val.i.us = load i32, ptr %.val20.i.us, align 4, !tbaa !59
  %29 = sext i32 %.val20.val.i.us to i64
  %30 = getelementptr inbounds ptr, ptr %.val19.i, i64 %29
  %31 = load ptr, ptr %30, align 8, !tbaa !19
  %32 = getelementptr i8, ptr %22, i64 20
  %.val21.i.us = load i32, ptr %32, align 4
  %33 = and i32 %.val21.i.us, 1024
  %.not.i.us = icmp eq i32 %33, 0
  br i1 %.not.i.us, label %.lr.ph26.i.us, label %.lr.ph.i.us

.lr.ph.i.us:                                      ; preds = %.lr.ph32.split.us, %.lr.ph.i.us
  %indvars.iv.i.us = phi i64 [ %indvars.iv.next.i.us, %.lr.ph.i.us ], [ 0, %.lr.ph32.split.us ]
  %34 = getelementptr inbounds nuw i32, ptr %31, i64 %indvars.iv.i.us
  %35 = load i32, ptr %34, align 4, !tbaa !59
  %36 = xor i32 %35, -1
  %37 = getelementptr inbounds nuw i32, ptr %27, i64 %indvars.iv.i.us
  store i32 %36, ptr %37, align 4, !tbaa !59
  %indvars.iv.next.i.us = add nuw nsw i64 %indvars.iv.i.us, 1
  %exitcond.not.i.us = icmp eq i64 %indvars.iv.next.i.us, %wide.trip.count.i
  br i1 %exitcond.not.i.us, label %Res_SimTransferOne.exit.us, label %.lr.ph.i.us, !llvm.loop !90

.lr.ph26.i.us:                                    ; preds = %.lr.ph32.split.us, %.lr.ph26.i.us
  %indvars.iv29.i.us = phi i64 [ %indvars.iv.next30.i.us, %.lr.ph26.i.us ], [ 0, %.lr.ph32.split.us ]
  %38 = getelementptr inbounds nuw i32, ptr %31, i64 %indvars.iv29.i.us
  %39 = load i32, ptr %38, align 4, !tbaa !59
  %40 = getelementptr inbounds nuw i32, ptr %27, i64 %indvars.iv29.i.us
  store i32 %39, ptr %40, align 4, !tbaa !59
  %indvars.iv.next30.i.us = add nuw nsw i64 %indvars.iv29.i.us, 1
  %exitcond33.not.i.us = icmp eq i64 %indvars.iv.next30.i.us, %wide.trip.count.i
  br i1 %exitcond33.not.i.us, label %Res_SimTransferOne.exit.us, label %.lr.ph26.i.us, !llvm.loop !91

Res_SimTransferOne.exit.us:                       ; preds = %.lr.ph.i.us, %.lr.ph26.i.us
  %indvars.iv.next38 = add nuw nsw i64 %indvars.iv37, 1
  %.val22.val.us = load i32, ptr %15, align 4, !tbaa !22
  %41 = sext i32 %.val22.val.us to i64
  %42 = icmp slt i64 %indvars.iv.next38, %41
  br i1 %42, label %.lr.ph32.split.us, label %.critedge2, !llvm.loop !92

.lr.ph:                                           ; preds = %2, %53
  %43 = phi ptr [ %54, %53 ], [ %9, %2 ]
  %indvars.iv = phi i64 [ %indvars.iv.next, %53 ], [ 0, %2 ]
  %44 = phi ptr [ %56, %53 ], [ %11, %2 ]
  %45 = getelementptr i8, ptr %44, i64 8
  %.val24.val = load ptr, ptr %45, align 8, !tbaa !25
  %46 = getelementptr inbounds nuw ptr, ptr %.val24.val, i64 %indvars.iv
  %47 = load ptr, ptr %46, align 8, !tbaa !19
  %48 = icmp eq ptr %47, null
  br i1 %48, label %53, label %49

49:                                               ; preds = %.lr.ph
  %50 = getelementptr i8, ptr %47, i64 28
  %.val25 = load i32, ptr %50, align 4, !tbaa !93
  %.not = icmp eq i32 %.val25, 2
  br i1 %.not, label %51, label %53

51:                                               ; preds = %49
  %52 = load ptr, ptr %3, align 8, !tbaa !26
  tail call void @Res_SimPerformOne(ptr noundef nonnull %47, ptr noundef %52, i32 noundef %1)
  %.pre = load ptr, ptr %0, align 8, !tbaa !36
  br label %53

53:                                               ; preds = %51, %49, %.lr.ph
  %54 = phi ptr [ %.pre, %51 ], [ %43, %49 ], [ %43, %.lr.ph ]
  %indvars.iv.next = add nuw nsw i64 %indvars.iv, 1
  %55 = getelementptr inbounds nuw i8, ptr %54, i64 32
  %56 = load ptr, ptr %55, align 8, !tbaa !38
  %57 = getelementptr i8, ptr %56, i64 4
  %.val = load i32, ptr %57, align 4, !tbaa !22
  %58 = sext i32 %.val to i64
  %59 = icmp slt i64 %indvars.iv.next, %58
  br i1 %59, label %.lr.ph, label %.critedge.preheader, !llvm.loop !94

.critedge2:                                       ; preds = %Res_SimTransferOne.exit.us, %.lr.ph32, %.critedge.preheader
  ret void
}